; Function Attrs: mustprogress nofree norecurse nosync nounwind willreturn memory(argmem: readwrite) uwtable
define internal void @_ZN5faiss12_GLOBAL__N_114FlatHammingDisINS_22HammingComputerDefaultEE9set_queryEPKf(ptr nocapture noundef nonnull align 8 dereferenceable(48) %0, ptr noundef %1) unnamed_addr #17 align 2 {
  %3 = getelementptr inbounds i8, ptr %0, i64 32
  %4 = getelementptr inbounds i8, ptr %0, i64 8
  %5 = load i32, ptr %4, align 8
  store ptr %1, ptr %3, align 8
  %6 = sdiv i32 %5, 8
  %7 = getelementptr inbounds i8, ptr %0, i64 40
  store i32 %6, ptr %7, align 8
  %8 = srem i32 %5, 8
  %9 = getelementptr inbounds i8, ptr %0, i64 44
  store i32 %8, ptr %9, align 4
  ret void
}